Certificate Request:
    Data:
        Version: 0 (0x0)
        Subject: C=BR, ST=Rio de Janeiro, L=Mage, O=Qzumba - security chat relay, OU=Security, CN=zumbi.loc/emailAddress=admin@zumbi.loc
        Subject Public Key Info:
            Public Key Algorithm: rsaEncryption
                Public-Key: (2048 bit)
                Modulus:
                    00:d8:c1:a2:ea:17:5f:f8:14:28:70:d1:6d:45:29:
                    c2:5b:1e:ee:53:77:6b:bb:a0:bb:dd:54:0d:55:2a:
                    e2:34:d7:07:25:73:f0:47:1c:40:c9:67:32:63:a8:
                    f5:7a:02:40:55:84:bc:7c:1c:ed:3d:7e:82:8a:2d:
                    1c:84:30:83:9e:c5:38:71:18:de:5c:f9:02:39:c2:
                    64:cb:8f:48:09:df:eb:3a:df:e2:29:05:34:1b:0b:
                    a0:ef:e4:c1:1f:38:44:df:27:b9:9b:38:b8:26:ea:
                    64:a5:4b:3e:90:41:d2:ca:23:b1:9b:44:aa:1e:1b:
                    88:db:25:25:1c:9b:29:7f:09:7a:91:1e:fa:21:40:
                    09:1f:c8:01:20:81:4b:72:68:b0:ad:f3:bb:82:76:
                    e1:03:10:6c:ab:32:b4:f1:f1:21:65:03:52:8e:4a:
                    fb:d2:e1:63:30:3e:db:f8:b8:1a:be:c5:0f:5d:6c:
                    08:a0:d7:71:a6:2a:4e:dd:24:4f:99:d3:51:d9:dd:
                    26:99:4f:34:a0:8c:6d:c3:6b:e4:c3:d0:eb:fe:b7:
                    31:10:a6:98:54:45:fa:f1:ef:fb:03:de:4c:e6:1a:
                    1e:60:2b:7a:c6:6a:2d:5d:32:de:a3:22:a9:06:f1:
                    73:c9:7a:a8:61:07:46:0e:0a:4e:a1:78:bd:bf:8d:
                    d6:37
                Exponent: 65537 (0x10001)
        Attributes:
            a0:00
    Signature Algorithm: sha512WithRSAEncryption
         95:ab:07:3f:00:74:c6:24:73:a1:9f:36:d3:2c:e6:72:2a:20:
         7b:80:2c:74:a2:f5:a9:5b:83:48:0e:fd:4c:e0:2d:27:2b:66:
         50:e6:64:bc:e6:09:df:7c:dc:03:f1:f0:75:0e:ab:59:e7:2a:
         e3:7a:1c:80:92:cc:17:58:80:d3:9f:95:0a:a6:b8:4d:3c:b6:
         25:ff:8b:2e:7f:78:af:89:3e:58:3b:d7:ed:9e:92:bc:75:89:
         bb:79:76:a2:bf:51:03:c0:00:45:56:cc:00:b5:2d:ba:1d:73:
         bf:b2:2d:b0:bc:49:28:e7:2a:27:04:58:e4:bd:2c:90:ed:39:
         b5:10:fd:6b:78:1c:59:e0:20:63:94:48:a2:63:70:f9:d3:4b:
         51:34:aa:32:4f:14:3b:a5:91:fc:61:ee:51:d5:8e:3c:cf:5c:
         71:9e:e1:84:31:d7:67:ab:e5:ff:6e:e1:57:e8:f5:f5:49:b4:
         64:3d:75:44:b6:42:aa:13:c8:b9:1e:c5:f8:f9:e7:a1:bf:56:
         e0:23:72:9f:a3:5e:45:fb:9c:ee:fc:22:e8:79:4d:fc:66:d3:
         38:09:a9:57:1c:f9:2f:ea:52:c0:e0:ba:7f:d0:d4:ff:11:e1:
         16:6a:4a:4d:39:5e:a7:fc:af:f1:3b:c4:8a:ce:e5:0d:81:ae:
         89:4b:32:a5
-----BEGIN CERTIFICATE REQUEST-----
MIIC6TCCAdECAQAwgaMxCzAJBgNVBAYTAkJSMRcwFQYDVQQIDA5SaW8gZGUgSmFu
ZWlybzENMAsGA1UEBwwETWFnZTElMCMGA1UECgwcUXp1bWJhIC0gc2VjdXJpdHkg
Y2hhdCByZWxheTERMA8GA1UECwwIU2VjdXJpdHkxEjAQBgNVBAMMCXp1bWJpLmxv
YzEeMBwGCSqGSIb3DQEJARYPYWRtaW5AenVtYmkubG9jMIIBIjANBgkqhkiG9w0B
AQEFAAOCAQ8AMIIBCgKCAQEA2MGi6hdf+BQocNFtRSnCWx7uU3dru6C73VQNVSri
NNcHJXPwRxxAyWcyY6j1egJAVYS8fBztPX6Cii0chDCDnsU4cRjeXPkCOcJky49I
Cd/rOt/iKQU0Gwug7+TBHzhE3ye5mzi4JupkpUs+kEHSyiOxm0SqHhuI2yUlHJsp
fwl6kR76IUAJH8gBIIFLcmiwrfO7gnbhAxBsqzK08fEhZQNSjkr70uFjMD7b+Lga
vsUPXWwIoNdxpipO3SRPmdNR2d0mmU80oIxtw2vkw9Dr/rcxEKaYVEX68e/7A95M
5hoeYCt6xmotXTLeoyKpBvFzyXqoYQdGDgpOoXi9v43WNwIDAQABoAAwDQYJKoZI
hvcNAQENBQADggEBAJWrBz8AdMYkc6GfNtMs5nIqIHuALHSi9albg0gO/UzgLScr
ZlDmZLzmCd983APx8HUOq1nnKuN6HICSzBdYgNOflQqmuE08tiX/iy5/eK+JPlg7
1+2ekrx1ibt5dqK/UQPAAEVWzAC1Lbodc7+yLbC8SSjnKicEWOS9LJDtObUQ/Wt4
HFngIGOUSKJjcPnTS1E0qjJPFDulkfxh7lHVjjzPXHGe4YQx12er5f9u4Vfo9fVJ
tGQ9dUS2QqoTyLkexfj556G/VuAjcp+jXkX7nO78Iuh5Tfxm0zgJqVcc+S/qUsDg
un/Q1P8R4RZqSk05Xqf8r/E7xIrO5Q2BrolLMqU=
-----END CERTIFICATE REQUEST-----
