Certificate:
    Data:
        Version: 3 (0x2)
        Serial Number: 0 (0x0)
    Signature Algorithm: sha512WithRSAEncryption
        Issuer: C=BR, ST=Rio de Janeiro, L=Mage, O=Qzumba - security chat relay, OU=Security, CN=zumbi.loc/emailAddress=admin@zumbi.loc
        Validity
            Not Before: Nov  7 07:41:30 2015 GMT
            Not After : Nov  6 07:41:30 2016 GMT
        Subject: C=BR, ST=Rio de Janeiro, L=Mage, O=Qzumba - security chat relay, OU=Security, CN=zumbi.loc/emailAddress=admin@zumbi.loc
        Subject Public Key Info:
            Public Key Algorithm: rsaEncryption
                Public-Key: (2048 bit)
                Modulus:
                    00:d8:c1:a2:ea:17:5f:f8:14:28:70:d1:6d:45:29:
                    c2:5b:1e:ee:53:77:6b:bb:a0:bb:dd:54:0d:55:2a:
                    e2:34:d7:07:25:73:f0:47:1c:40:c9:67:32:63:a8:
                    f5:7a:02:40:55:84:bc:7c:1c:ed:3d:7e:82:8a:2d:
                    1c:84:30:83:9e:c5:38:71:18:de:5c:f9:02:39:c2:
                    64:cb:8f:48:09:df:eb:3a:df:e2:29:05:34:1b:0b:
                    a0:ef:e4:c1:1f:38:44:df:27:b9:9b:38:b8:26:ea:
                    64:a5:4b:3e:90:41:d2:ca:23:b1:9b:44:aa:1e:1b:
                    88:db:25:25:1c:9b:29:7f:09:7a:91:1e:fa:21:40:
                    09:1f:c8:01:20:81:4b:72:68:b0:ad:f3:bb:82:76:
                    e1:03:10:6c:ab:32:b4:f1:f1:21:65:03:52:8e:4a:
                    fb:d2:e1:63:30:3e:db:f8:b8:1a:be:c5:0f:5d:6c:
                    08:a0:d7:71:a6:2a:4e:dd:24:4f:99:d3:51:d9:dd:
                    26:99:4f:34:a0:8c:6d:c3:6b:e4:c3:d0:eb:fe:b7:
                    31:10:a6:98:54:45:fa:f1:ef:fb:03:de:4c:e6:1a:
                    1e:60:2b:7a:c6:6a:2d:5d:32:de:a3:22:a9:06:f1:
                    73:c9:7a:a8:61:07:46:0e:0a:4e:a1:78:bd:bf:8d:
                    d6:37
                Exponent: 65537 (0x10001)
        X509v3 extensions:
            X509v3 Subject Key Identifier: 
                0F:EB:DC:43:21:31:8B:B0:B9:06:2A:1F:CB:AE:C8:36:0A:4A:59:C4
            X509v3 Authority Key Identifier: 
                keyid:0F:EB:DC:43:21:31:8B:B0:B9:06:2A:1F:CB:AE:C8:36:0A:4A:59:C4

            X509v3 Basic Constraints: 
                CA:TRUE
    Signature Algorithm: sha512WithRSAEncryption
         d0:0f:60:81:ce:98:f8:ec:87:39:a1:e5:ef:6c:ca:d2:9e:5e:
         73:35:a0:00:f3:dc:e7:fd:2b:28:05:d3:d6:6f:ed:d0:fa:3d:
         60:c7:b1:0f:6f:f4:fb:1a:27:05:71:9c:e4:3b:4f:e0:be:7d:
         d8:59:39:63:71:2d:08:8b:7e:0a:8d:66:8a:f1:a9:1c:5e:dc:
         86:63:67:be:ca:de:59:d3:ac:46:8c:58:11:1b:49:59:b6:a7:
         23:4c:20:8f:1b:f2:d5:e6:00:68:22:10:ec:00:1c:73:db:f5:
         55:37:c0:1b:04:9e:17:0b:c1:5c:d7:95:d5:b2:e7:80:25:af:
         7e:7d:00:a4:a7:ed:a4:80:91:19:e4:79:c5:7e:ab:62:75:9b:
         7a:21:00:46:1a:4a:78:31:22:c2:4a:90:e4:69:8c:1e:b3:a4:
         97:ae:e6:e7:b6:2c:8b:f3:ae:d5:e4:36:07:ad:38:63:b8:e9:
         18:bc:79:f7:b2:48:90:22:87:b1:90:13:89:52:bb:73:17:84:
         34:42:0d:af:ed:1b:9f:3b:fe:51:55:dd:d1:ab:7f:d9:dc:21:
         9d:65:41:cf:26:98:79:87:45:56:77:8f:9d:56:e2:01:b1:e2:
         6a:ca:15:c6:d3:17:67:2a:39:a3:83:c1:56:3b:29:24:ed:45:
         9e:aa:8f:7f
-----BEGIN CERTIFICATE-----
MIIEEzCCAvugAwIBAgIBADANBgkqhkiG9w0BAQ0FADCBozELMAkGA1UEBhMCQlIx
FzAVBgNVBAgMDlJpbyBkZSBKYW5laXJvMQ0wCwYDVQQHDARNYWdlMSUwIwYDVQQK
DBxRenVtYmEgLSBzZWN1cml0eSBjaGF0IHJlbGF5MREwDwYDVQQLDAhTZWN1cml0
eTESMBAGA1UEAwwJenVtYmkubG9jMR4wHAYJKoZIhvcNAQkBFg9hZG1pbkB6dW1i
aS5sb2MwHhcNMTUxMTA3MDc0MTMwWhcNMTYxMTA2MDc0MTMwWjCBozELMAkGA1UE
BhMCQlIxFzAVBgNVBAgMDlJpbyBkZSBKYW5laXJvMQ0wCwYDVQQHDARNYWdlMSUw
IwYDVQQKDBxRenVtYmEgLSBzZWN1cml0eSBjaGF0IHJlbGF5MREwDwYDVQQLDAhT
ZWN1cml0eTESMBAGA1UEAwwJenVtYmkubG9jMR4wHAYJKoZIhvcNAQkBFg9hZG1p
bkB6dW1iaS5sb2MwggEiMA0GCSqGSIb3DQEBAQUAA4IBDwAwggEKAoIBAQDYwaLq
F1/4FChw0W1FKcJbHu5Td2u7oLvdVA1VKuI01wclc/BHHEDJZzJjqPV6AkBVhLx8
HO09foKKLRyEMIOexThxGN5c+QI5wmTLj0gJ3+s63+IpBTQbC6Dv5MEfOETfJ7mb
OLgm6mSlSz6QQdLKI7GbRKoeG4jbJSUcmyl/CXqRHvohQAkfyAEggUtyaLCt87uC
duEDEGyrMrTx8SFlA1KOSvvS4WMwPtv4uBq+xQ9dbAig13GmKk7dJE+Z01HZ3SaZ
TzSgjG3Da+TD0Ov+tzEQpphURfrx7/sD3kzmGh5gK3rGai1dMt6jIqkG8XPJeqhh
B0YOCk6heL2/jdY3AgMBAAGjUDBOMB0GA1UdDgQWBBQP69xDITGLsLkGKh/Lrsg2
CkpZxDAfBgNVHSMEGDAWgBQP69xDITGLsLkGKh/Lrsg2CkpZxDAMBgNVHRMEBTAD
AQH/MA0GCSqGSIb3DQEBDQUAA4IBAQDQD2CBzpj47Ic5oeXvbMrSnl5zNaAA89zn
/SsoBdPWb+3Q+j1gx7EPb/T7GicFcZzkO0/gvn3YWTljcS0Ii34KjWaK8akcXtyG
Y2e+yt5Z06xGjFgRG0lZtqcjTCCPG/LV5gBoIhDsABxz2/VVN8AbBJ4XC8Fc15XV
sueAJa9+fQCkp+2kgJEZ5HnFfqtidZt6IQBGGkp4MSLCSpDkaYwes6SXrubntiyL
867V5DYHrThjuOkYvHn3skiQIoexkBOJUrtzF4Q0Qg2v7RufO/5RVd3Rq3/Z3CGd
ZUHPJph5h0VWd4+dVuIBseJqyhXG0xdnKjmjg8FWOykk7UWeqo9/
-----END CERTIFICATE-----
